target datalayout = "e-m:e-p270:32:32-p271:32:32-p272:64:64-i64:64-i128:128-f80:128-n8:16:32:64-S128"
target triple = "x86_64-pc-linux-gnu"

%struct.ident_t = type { i32, i32, i32, i32, ptr }
%"class.std::vector.30" = type { %"struct.std::_Vector_base.31" }
%"struct.std::_Vector_base.31" = type { %"struct.std::_Vector_base<unsigned int, LightGBM::Common::AlignmentAllocator<unsigned int>>::_Vector_impl" }
%"struct.std::_Vector_base<unsigned int, LightGBM::Common::AlignmentAllocator<unsigned int>>::_Vector_impl" = type { %"struct.std::_Vector_base<unsigned int, LightGBM::Common::AlignmentAllocator<unsigned int>>::_Vector_impl_data" }
%"struct.std::_Vector_base<unsigned int, LightGBM::Common::AlignmentAllocator<unsigned int>>::_Vector_impl_data" = type { ptr, ptr, ptr }
%"class.LightGBM::MultiValBin" = type { ptr }
%"class.std::vector.121" = type { %"struct.std::_Vector_base.122" }
%"struct.std::_Vector_base.122" = type { %"struct.std::_Vector_base<unsigned int, std::allocator<unsigned int>>::_Vector_impl" }
%"struct.std::_Vector_base<unsigned int, std::allocator<unsigned int>>::_Vector_impl" = type { %"struct.std::_Vector_base<unsigned int, std::allocator<unsigned int>>::_Vector_impl_data" }
%"struct.std::_Vector_base<unsigned int, std::allocator<unsigned int>>::_Vector_impl_data" = type { ptr, ptr, ptr }
%"class.LightGBM::MultiValDenseBin.130" = type { %"class.LightGBM::MultiValBin", i32, i32, i32, %"class.std::vector.121", %"class.std::vector.30" }

@1 = private unnamed_addr constant %struct.ident_t { i32 0, i32 514, i32 0, i32 22, ptr @0 }, align 8

; Function Attrs: mustprogress nounwind uwtable
define linkonce_odr noundef nonnull align 4 dereferenceable(4) ptr @_ZNSt6vectorIjN8LightGBM6Common18AlignmentAllocatorIjLm32EEEEixEm(ptr noundef nonnull align 8 dereferenceable(24) %0, i64 noundef %1) #0 comdat align 2 {
  %3 = alloca ptr, align 8
  %4 = alloca i64, align 8
  store ptr %0, ptr %3, align 8, !tbaa !507
  store i64 %1, ptr %4, align 8, !tbaa !37
  %5 = load ptr, ptr %3, align 8
  %6 = getelementptr inbounds nuw %"struct.std::_Vector_base.31", ptr %5, i32 0, i32 0
  %7 = getelementptr inbounds nuw %"struct.std::_Vector_base<unsigned int, LightGBM::Common::AlignmentAllocator<unsigned int>>::_Vector_impl_data", ptr %6, i32 0, i32 0
  %8 = load ptr, ptr %7, align 8, !tbaa !509
  %9 = load i64, ptr %4, align 8, !tbaa !37
  %10 = getelementptr inbounds nuw i32, ptr %8, i64 %9
  ret ptr %10
}

; Function Attrs: mustprogress nounwind uwtable
define linkonce_odr noundef nonnull align 4 dereferenceable(4) ptr @_ZNKSt6vectorIjN8LightGBM6Common18AlignmentAllocatorIjLm32EEEEixEm(ptr noundef nonnull align 8 dereferenceable(24) %0, i64 noundef %1) #0 comdat align 2 {
  %3 = alloca ptr, align 8
  %4 = alloca i64, align 8
  store ptr %0, ptr %3, align 8, !tbaa !507
  store i64 %1, ptr %4, align 8, !tbaa !37
  %5 = load ptr, ptr %3, align 8
  %6 = getelementptr inbounds nuw %"struct.std::_Vector_base.31", ptr %5, i32 0, i32 0
  %7 = getelementptr inbounds nuw %"struct.std::_Vector_base<unsigned int, LightGBM::Common::AlignmentAllocator<unsigned int>>::_Vector_impl_data", ptr %6, i32 0, i32 0
  %8 = load ptr, ptr %7, align 8, !tbaa !509
  %9 = load i64, ptr %4, align 8, !tbaa !37
  %10 = getelementptr inbounds nuw i32, ptr %8, i64 %9
  ret ptr %10
}

; Function Attrs: inlinehint mustprogress nounwind uwtable
define weak_odr noundef i64 @_ZNK8LightGBM16MultiValDenseBinIjE6RowPtrEi(ptr noundef nonnull align 8 dereferenceable(72) %0, i32 noundef %1) #6 comdat align 2 {
  %3 = alloca ptr, align 8
  %4 = alloca i32, align 4
  store ptr %0, ptr %3, align 8, !tbaa !208
  store i32 %1, ptr %4, align 4, !tbaa !11
  %5 = load ptr, ptr %3, align 8
  %6 = load i32, ptr %4, align 4, !tbaa !11
  %7 = sext i32 %6 to i64
  %8 = getelementptr inbounds nuw %"class.LightGBM::MultiValDenseBin.130", ptr %5, i32 0, i32 3
  %9 = load i32, ptr %8, align 8, !tbaa !213
  %10 = sext i32 %9 to i64
  %11 = mul i64 %7, %10
  ret i64 %11
}

; Function Attrs: inlinehint mustprogress nounwind uwtable
define linkonce_odr noundef nonnull align 4 dereferenceable(4) ptr @_ZSt3minIiERKT_S2_S2_(ptr noundef nonnull align 4 dereferenceable(4) %0, ptr noundef nonnull align 4 dereferenceable(4) %1) #6 comdat {
  %3 = alloca ptr, align 8
  %4 = alloca ptr, align 8
  %5 = alloca ptr, align 8
  store ptr %0, ptr %4, align 8, !tbaa !14
  store ptr %1, ptr %5, align 8, !tbaa !14
  %6 = load ptr, ptr %5, align 8, !tbaa !14
  %7 = load i32, ptr %6, align 4, !tbaa !11
  %8 = load ptr, ptr %4, align 8, !tbaa !14
  %9 = load i32, ptr %8, align 4, !tbaa !11
  %10 = icmp slt i32 %7, %9
  br i1 %10, label %11, label %13

11:                                               ; preds = %2
  %12 = load ptr, ptr %5, align 8, !tbaa !14
  store ptr %12, ptr %3, align 8
  br label %15

13:                                               ; preds = %2
  %14 = load ptr, ptr %4, align 8, !tbaa !14
  store ptr %14, ptr %3, align 8
  br label %15

15:                                               ; preds = %13, %11
  %16 = load ptr, ptr %3, align 8
  ret ptr %16
}

; Function Attrs: alwaysinline norecurse nounwind uwtable
define internal void @_ZN8LightGBM16MultiValDenseBinIjE9CopyInnerILb1ELb0EEEvPKNS_11MultiValBinEPKiiRKSt6vectorIiSaIiEE.omp_outlined(ptr noalias noundef %0, ptr noalias noundef %1, ptr noundef nonnull align 4 dereferenceable(4) %2, ptr noundef nonnull align 4 dereferenceable(4) %3, ptr noundef %4, ptr noundef nonnull align 8 dereferenceable(8) %5, ptr noundef nonnull align 8 dereferenceable(8) %6, ptr noundef nonnull align 8 dereferenceable(24) %7) #24 {
  %9 = alloca ptr, align 8
  %10 = alloca ptr, align 8
  %11 = alloca ptr, align 8
  %12 = alloca ptr, align 8
  %13 = alloca ptr, align 8
  %14 = alloca ptr, align 8
  %15 = alloca ptr, align 8
  %16 = alloca ptr, align 8
  %17 = alloca ptr, align 8
  %18 = alloca i32, align 4
  %19 = alloca i32, align 4
  %20 = alloca i32, align 4
  %21 = alloca i32, align 4
  %22 = alloca i32, align 4
  %23 = alloca i32, align 4
  %24 = alloca i32, align 4
  %25 = alloca i32, align 4
  %26 = alloca i32, align 4
  %27 = alloca i32, align 4
  %28 = alloca i32, align 4
  %29 = alloca i32, align 4
  %30 = alloca i32, align 4
  %31 = alloca i32, align 4
  %32 = alloca i64, align 8
  %33 = alloca i64, align 8
  %34 = alloca i32, align 4
  store ptr %0, ptr %9, align 8, !tbaa !14
  store ptr %1, ptr %10, align 8, !tbaa !14
  store ptr %2, ptr %11, align 8, !tbaa !14
  store ptr %3, ptr %12, align 8, !tbaa !14
  store ptr %4, ptr %13, align 8, !tbaa !208
  store ptr %5, ptr %14, align 8, !tbaa !1261
  store ptr %6, ptr %15, align 8, !tbaa !336
  store ptr %7, ptr %16, align 8, !tbaa !21
  %35 = load ptr, ptr %11, align 8, !tbaa !14
  %36 = load ptr, ptr %12, align 8, !tbaa !14
  %37 = load ptr, ptr %13, align 8, !tbaa !208
  %38 = load ptr, ptr %14, align 8, !tbaa !1261
  %39 = load ptr, ptr %15, align 8, !tbaa !336
  %40 = load ptr, ptr %16, align 8, !tbaa !21
  store ptr %40, ptr %17, align 8
  call void @llvm.lifetime.start.p0(i64 4, ptr %18) #5
  call void @llvm.lifetime.start.p0(i64 4, ptr %19) #5
  %41 = load i32, ptr %35, align 4, !tbaa !11
  store i32 %41, ptr %19, align 4, !tbaa !11
  call void @llvm.lifetime.start.p0(i64 4, ptr %20) #5
  %42 = load i32, ptr %19, align 4, !tbaa !11
  %43 = sub nsw i32 %42, 0
  %44 = sdiv i32 %43, 1
  %45 = sub nsw i32 %44, 1
  store i32 %45, ptr %20, align 4, !tbaa !11
  call void @llvm.lifetime.start.p0(i64 4, ptr %21) #5
  store i32 0, ptr %21, align 4, !tbaa !11
  call void @llvm.lifetime.end.p0(i64 4, ptr %21) #5
  %46 = load i32, ptr %19, align 4, !tbaa !11
  %47 = icmp slt i32 0, %46
  br i1 %47, label %48, label %146

48:                                               ; preds = %8
  call void @llvm.lifetime.start.p0(i64 4, ptr %22) #5
  store i32 0, ptr %22, align 4, !tbaa !11
  call void @llvm.lifetime.start.p0(i64 4, ptr %23) #5
  %49 = load i32, ptr %20, align 4, !tbaa !11
  store i32 %49, ptr %23, align 4, !tbaa !11
  call void @llvm.lifetime.start.p0(i64 4, ptr %24) #5
  store i32 1, ptr %24, align 4, !tbaa !11
  call void @llvm.lifetime.start.p0(i64 4, ptr %25) #5
  store i32 0, ptr %25, align 4, !tbaa !11
  call void @llvm.lifetime.start.p0(i64 4, ptr %26) #5
  %50 = load ptr, ptr %9, align 8
  %51 = load i32, ptr %50, align 4, !tbaa !11
  call void @__kmpc_for_static_init_4(ptr @1, i32 %51, i32 33, ptr %25, ptr %22, ptr %23, ptr %24, i32 1, i32 1)
  br label %52

52:                                               ; preds = %136, %48
  %53 = load i32, ptr %23, align 4, !tbaa !11
  %54 = load i32, ptr %20, align 4, !tbaa !11
  %55 = icmp sgt i32 %53, %54
  br i1 %55, label %56, label %58

56:                                               ; preds = %52
  %57 = load i32, ptr %20, align 4, !tbaa !11
  br label %60

58:                                               ; preds = %52
  %59 = load i32, ptr %23, align 4, !tbaa !11
  br label %60

60:                                               ; preds = %58, %56
  %61 = phi i32 [ %57, %56 ], [ %59, %58 ]
  store i32 %61, ptr %23, align 4, !tbaa !11
  %62 = load i32, ptr %22, align 4, !tbaa !11
  store i32 %62, ptr %18, align 4, !tbaa !11
  %63 = load i32, ptr %18, align 4, !tbaa !11
  %64 = load i32, ptr %23, align 4, !tbaa !11
  %65 = icmp sle i32 %63, %64
  br i1 %65, label %67, label %66

66:                                               ; preds = %60
  br label %143

67:                                               ; preds = %60
  br label %68

68:                                               ; preds = %132, %67
  %69 = load i32, ptr %18, align 4, !tbaa !11
  %70 = load i32, ptr %23, align 4, !tbaa !11
  %71 = icmp sle i32 %69, %70
  br i1 %71, label %73, label %72

72:                                               ; preds = %68
  br label %135

73:                                               ; preds = %68
  %74 = load i32, ptr %18, align 4, !tbaa !11
  %75 = mul nsw i32 %74, 1
  %76 = add nsw i32 0, %75
  store i32 %76, ptr %26, align 4, !tbaa !11
  call void @llvm.lifetime.start.p0(i64 4, ptr %27) #5
  %77 = load i32, ptr %26, align 4, !tbaa !11
  %78 = load i32, ptr %36, align 4, !tbaa !11
  %79 = mul nsw i32 %77, %78
  store i32 %79, ptr %27, align 4, !tbaa !11
  call void @llvm.lifetime.start.p0(i64 4, ptr %28) #5
  %80 = getelementptr inbounds nuw %"class.LightGBM::MultiValDenseBin.130", ptr %37, i32 0, i32 1
  call void @llvm.lifetime.start.p0(i64 4, ptr %29) #5
  %81 = load i32, ptr %27, align 4, !tbaa !11
  %82 = load i32, ptr %36, align 4, !tbaa !11
  %83 = add nsw i32 %81, %82
  store i32 %83, ptr %29, align 4, !tbaa !11
  %84 = call noundef nonnull align 4 dereferenceable(4) ptr @_ZSt3minIiERKT_S2_S2_(ptr noundef nonnull align 4 dereferenceable(4) %80, ptr noundef nonnull align 4 dereferenceable(4) %29)
  %85 = load i32, ptr %84, align 4, !tbaa !11
  call void @llvm.lifetime.end.p0(i64 4, ptr %29) #5
  store i32 %85, ptr %28, align 4, !tbaa !11
  call void @llvm.lifetime.start.p0(i64 4, ptr %30) #5
  %86 = load i32, ptr %27, align 4, !tbaa !11
  store i32 %86, ptr %30, align 4, !tbaa !11
  br label %87

87:                                               ; preds = %127, %73
  %88 = load i32, ptr %30, align 4, !tbaa !11
  %89 = load i32, ptr %28, align 4, !tbaa !11
  %90 = icmp slt i32 %88, %89
  br i1 %90, label %92, label %91

91:                                               ; preds = %87
  store i32 7, ptr %31, align 4
  call void @llvm.lifetime.end.p0(i64 4, ptr %30) #5
  br label %130

92:                                               ; preds = %87
  call void @llvm.lifetime.start.p0(i64 8, ptr %32) #5
  %93 = load i32, ptr %30, align 4, !tbaa !11
  %94 = call noundef i64 @_ZNK8LightGBM16MultiValDenseBinIjE6RowPtrEi(ptr noundef nonnull align 8 dereferenceable(72) %37, i32 noundef %93)
  store i64 %94, ptr %32, align 8, !tbaa !37
  call void @llvm.lifetime.start.p0(i64 8, ptr %33) #5
  %95 = load ptr, ptr %38, align 8, !tbaa !208
  %96 = load ptr, ptr %39, align 8, !tbaa !14
  %97 = load i32, ptr %30, align 4, !tbaa !11
  %98 = sext i32 %97 to i64
  %99 = getelementptr inbounds i32, ptr %96, i64 %98
  %100 = load i32, ptr %99, align 4, !tbaa !11
  %101 = call noundef i64 @_ZNK8LightGBM16MultiValDenseBinIjE6RowPtrEi(ptr noundef nonnull align 8 dereferenceable(72) %95, i32 noundef %100)
  store i64 %101, ptr %33, align 8, !tbaa !37
  call void @llvm.lifetime.start.p0(i64 4, ptr %34) #5
  store i32 0, ptr %34, align 4, !tbaa !11
  br label %102

102:                                              ; preds = %123, %92
  %103 = load i32, ptr %34, align 4, !tbaa !11
  %104 = getelementptr inbounds nuw %"class.LightGBM::MultiValDenseBin.130", ptr %37, i32 0, i32 3
  %105 = load i32, ptr %104, align 8, !tbaa !213
  %106 = icmp slt i32 %103, %105
  br i1 %106, label %108, label %107

107:                                              ; preds = %102
  store i32 10, ptr %31, align 4
  call void @llvm.lifetime.end.p0(i64 4, ptr %34) #5
  br label %126

108:                                              ; preds = %102
  %109 = load ptr, ptr %38, align 8, !tbaa !208
  %110 = getelementptr inbounds nuw %"class.LightGBM::MultiValDenseBin.130", ptr %109, i32 0, i32 5
  %111 = load i64, ptr %33, align 8, !tbaa !37
  %112 = load i32, ptr %34, align 4, !tbaa !11
  %113 = sext i32 %112 to i64
  %114 = add i64 %111, %113
  %115 = call noundef nonnull align 4 dereferenceable(4) ptr @_ZNKSt6vectorIjN8LightGBM6Common18AlignmentAllocatorIjLm32EEEEixEm(ptr noundef nonnull align 8 dereferenceable(24) %110, i64 noundef %114) #5
  %116 = load i32, ptr %115, align 4, !tbaa !11
  %117 = getelementptr inbounds nuw %"class.LightGBM::MultiValDenseBin.130", ptr %37, i32 0, i32 5
  %118 = load i64, ptr %32, align 8, !tbaa !37
  %119 = load i32, ptr %34, align 4, !tbaa !11
  %120 = sext i32 %119 to i64
  %121 = add i64 %118, %120
  %122 = call noundef nonnull align 4 dereferenceable(4) ptr @_ZNSt6vectorIjN8LightGBM6Common18AlignmentAllocatorIjLm32EEEEixEm(ptr noundef nonnull align 8 dereferenceable(24) %117, i64 noundef %121) #5
  store i32 %116, ptr %122, align 4, !tbaa !11
  br label %123

123:                                              ; preds = %108
  %124 = load i32, ptr %34, align 4, !tbaa !11
  %125 = add nsw i32 %124, 1
  store i32 %125, ptr %34, align 4, !tbaa !11
  br label %102, !llvm.loop !1263

126:                                              ; preds = %107
  call void @llvm.lifetime.end.p0(i64 8, ptr %33) #5
  call void @llvm.lifetime.end.p0(i64 8, ptr %32) #5
  br label %127

127:                                              ; preds = %126
  %128 = load i32, ptr %30, align 4, !tbaa !11
  %129 = add nsw i32 %128, 1
  store i32 %129, ptr %30, align 4, !tbaa !11
  br label %87, !llvm.loop !1264

130:                                              ; preds = %91
  call void @llvm.lifetime.end.p0(i64 4, ptr %28) #5
  call void @llvm.lifetime.end.p0(i64 4, ptr %27) #5
  br label %131

131:                                              ; preds = %130
  br label %132

132:                                              ; preds = %131
  %133 = load i32, ptr %18, align 4, !tbaa !11
  %134 = add nsw i32 %133, 1
  store i32 %134, ptr %18, align 4, !tbaa !11
  br label %68

135:                                              ; preds = %72
  br label %136

136:                                              ; preds = %135
  %137 = load i32, ptr %22, align 4, !tbaa !11
  %138 = load i32, ptr %24, align 4, !tbaa !11
  %139 = add nsw i32 %137, %138
  store i32 %139, ptr %22, align 4, !tbaa !11
  %140 = load i32, ptr %23, align 4, !tbaa !11
  %141 = load i32, ptr %24, align 4, !tbaa !11
  %142 = add nsw i32 %140, %141
  store i32 %142, ptr %23, align 4, !tbaa !11
  br label %52

143:                                              ; preds = %66
  %144 = load ptr, ptr %9, align 8
  %145 = load i32, ptr %144, align 4, !tbaa !11
  call void @__kmpc_for_static_fini(ptr @1, i32 %145)
  call void @llvm.lifetime.end.p0(i64 4, ptr %26) #5
  call void @llvm.lifetime.end.p0(i64 4, ptr %25) #5
  call void @llvm.lifetime.end.p0(i64 4, ptr %24) #5
  call void @llvm.lifetime.end.p0(i64 4, ptr %23) #5
  call void @llvm.lifetime.end.p0(i64 4, ptr %22) #5
  br label %146

146:                                              ; preds = %143, %8
  call void @llvm.lifetime.end.p0(i64 4, ptr %20) #5
  call void @llvm.lifetime.end.p0(i64 4, ptr %19) #5
  call void @llvm.lifetime.end.p0(i64 4, ptr %18) #5
  ret void
}