; Function Attrs: alwaysinline norecurse nounwind uwtable
define internal void @_ZN8LightGBM16MultiValDenseBinIjE9CopyInnerILb1ELb0EEEvPKNS_11MultiValBinEPKiiRKSt6vectorIiSaIiEE.omp_outlined(ptr noalias noundef readonly captures(none) %0, ptr noalias readnone captures(none) %1, ptr noundef nonnull readonly align 4 captures(none) dereferenceable(4) %2, ptr noundef nonnull readonly align 4 captures(none) dereferenceable(4) %3, ptr noundef readonly captures(none) %4, ptr noundef nonnull readonly align 8 captures(none) dereferenceable(8) %5, ptr noundef nonnull readonly align 8 captures(none) dereferenceable(8) %6, ptr nonnull readnone align 8 captures(none) %7) #21 {
  %9 = alloca i32, align 4
  %10 = alloca i32, align 4
  %11 = alloca i32, align 4
  %12 = alloca i32, align 4
  %13 = load i32, ptr %2, align 4, !tbaa !10
  %14 = add nsw i32 %13, -1
  %15 = icmp sgt i32 %13, 0
  br i1 %15, label %16, label %71

16:                                               ; preds = %8
  call void @llvm.lifetime.start.p0(i64 4, ptr nonnull %9) #22
  store i32 0, ptr %9, align 4, !tbaa !10
  call void @llvm.lifetime.start.p0(i64 4, ptr nonnull %10) #22
  store i32 %14, ptr %10, align 4, !tbaa !10
  call void @llvm.lifetime.start.p0(i64 4, ptr nonnull %11) #22
  store i32 1, ptr %11, align 4, !tbaa !10
  call void @llvm.lifetime.start.p0(i64 4, ptr nonnull %12) #22
  store i32 0, ptr %12, align 4, !tbaa !10
  %17 = load i32, ptr %0, align 4, !tbaa !10
  call void @__kmpc_for_static_init_4(ptr nonnull @1, i32 %17, i32 33, ptr nonnull %12, ptr nonnull %9, ptr nonnull %10, ptr nonnull %11, i32 1, i32 1)
  %18 = load i32, ptr %10, align 4, !tbaa !10
  %19 = call i32 @llvm.smin.i32(i32 %18, i32 %14)
  store i32 %19, ptr %10, align 4, !tbaa !10
  %20 = load i32, ptr %9, align 4, !tbaa !10
  %.not44 = icmp sgt i32 %20, %19
  br i1 %.not44, label %._crit_edge45, label %.preheader.lr.ph

.preheader.lr.ph:                                 ; preds = %16
  %21 = getelementptr inbounds nuw i8, ptr %4, i64 8
  %22 = getelementptr inbounds nuw i8, ptr %4, i64 16
  %23 = getelementptr inbounds nuw i8, ptr %4, i64 48
  br label %.preheader

.preheader:                                       ; preds = %.preheader.lr.ph, %._crit_edge43
  %24 = phi i32 [ %19, %.preheader.lr.ph ], [ %70, %._crit_edge43 ]
  %25 = phi i32 [ %20, %.preheader.lr.ph ], [ %68, %._crit_edge43 ]
  %.not3340 = icmp sgt i32 %25, %24
  br i1 %.not3340, label %._crit_edge43, label %.lr.ph42

.lr.ph42:                                         ; preds = %.preheader
  %26 = load ptr, ptr %5, align 8
  %27 = load ptr, ptr %6, align 8
  %28 = getelementptr inbounds nuw i8, ptr %26, i64 16
  %29 = getelementptr inbounds nuw i8, ptr %26, i64 48
  br label %30

30:                                               ; preds = %.lr.ph42, %._crit_edge39
  %31 = phi i32 [ %24, %.lr.ph42 ], [ %41, %._crit_edge39 ]
  %.03041 = phi i32 [ %25, %.lr.ph42 ], [ %42, %._crit_edge39 ]
  %32 = load i32, ptr %3, align 4, !tbaa !10
  %33 = mul nsw i32 %32, %.03041
  %34 = add nsw i32 %33, %32
  %35 = load i32, ptr %21, align 4, !tbaa !10
  %.sroa.speculated = call i32 @llvm.smin.i32(i32 %34, i32 %35)
  %36 = icmp slt i32 %33, %.sroa.speculated
  br i1 %36, label %.lr.ph38, label %._crit_edge39

.lr.ph38:                                         ; preds = %30
  %37 = load i32, ptr %22, align 8, !tbaa !513
  %38 = icmp sgt i32 %37, 0
  br i1 %38, label %.lr.ph38.split.preheader, label %._crit_edge39

.lr.ph38.split.preheader:                         ; preds = %.lr.ph38
  %39 = sext i32 %33 to i64
  %40 = sext i32 %.sroa.speculated to i64
  br label %.lr.ph38.split

._crit_edge39.loopexit:                           ; preds = %._crit_edge
  %.pre = load i32, ptr %10, align 4, !tbaa !10
  br label %._crit_edge39

._crit_edge39:                                    ; preds = %.lr.ph38, %._crit_edge39.loopexit, %30
  %41 = phi i32 [ %.pre, %._crit_edge39.loopexit ], [ %31, %30 ], [ %31, %.lr.ph38 ]
  %42 = add nsw i32 %.03041, 1
  %.not33.not = icmp slt i32 %.03041, %41
  br i1 %.not33.not, label %30, label %._crit_edge43.loopexit

.lr.ph38.split:                                   ; preds = %.lr.ph38.split.preheader, %._crit_edge
  %43 = phi i32 [ %37, %.lr.ph38.split.preheader ], [ %57, %._crit_edge ]
  %indvars.iv49 = phi i64 [ %39, %.lr.ph38.split.preheader ], [ %indvars.iv.next50, %._crit_edge ]
  %44 = icmp sgt i32 %43, 0
  br i1 %44, label %.lr.ph, label %._crit_edge

.lr.ph:                                           ; preds = %.lr.ph38.split
  %45 = load i32, ptr %28, align 8, !tbaa !513
  %46 = sext i32 %45 to i64
  %47 = getelementptr inbounds i32, ptr %27, i64 %indvars.iv49
  %48 = load i32, ptr %47, align 4, !tbaa !10
  %49 = sext i32 %48 to i64
  %50 = mul nsw i64 %46, %49
  %51 = zext nneg i32 %43 to i64
  %52 = mul nsw i64 %indvars.iv49, %51
  %53 = load ptr, ptr %29, align 8, !tbaa !171
  %54 = getelementptr i32, ptr %53, i64 %50
  %55 = load ptr, ptr %23, align 8, !tbaa !171
  %56 = getelementptr i32, ptr %55, i64 %52
  br label %59

._crit_edge:                                      ; preds = %59, %.lr.ph38.split
  %57 = phi i32 [ %43, %.lr.ph38.split ], [ %63, %59 ]
  %indvars.iv.next50 = add nsw i64 %indvars.iv49, 1
  %58 = icmp slt i64 %indvars.iv.next50, %40
  br i1 %58, label %.lr.ph38.split, label %._crit_edge39.loopexit, !llvm.loop !931

59:                                               ; preds = %.lr.ph, %59
  %indvars.iv = phi i64 [ 0, %.lr.ph ], [ %indvars.iv.next, %59 ]
  %60 = getelementptr i32, ptr %54, i64 %indvars.iv
  %61 = load i32, ptr %60, align 4, !tbaa !10
  %62 = getelementptr i32, ptr %56, i64 %indvars.iv
  store i32 %61, ptr %62, align 4, !tbaa !10
  %indvars.iv.next = add nuw nsw i64 %indvars.iv, 1
  %63 = load i32, ptr %22, align 8, !tbaa !513
  %64 = sext i32 %63 to i64
  %65 = icmp slt i64 %indvars.iv.next, %64
  br i1 %65, label %59, label %._crit_edge, !llvm.loop !932

._crit_edge43.loopexit:                           ; preds = %._crit_edge39
  %.pre52 = load i32, ptr %9, align 4, !tbaa !10
  br label %._crit_edge43

._crit_edge43:                                    ; preds = %._crit_edge43.loopexit, %.preheader
  %66 = phi i32 [ %25, %.preheader ], [ %.pre52, %._crit_edge43.loopexit ]
  %.lcssa = phi i32 [ %24, %.preheader ], [ %41, %._crit_edge43.loopexit ]
  %67 = load i32, ptr %11, align 4, !tbaa !10
  %68 = add nsw i32 %67, %66
  store i32 %68, ptr %9, align 4, !tbaa !10
  %69 = add nsw i32 %67, %.lcssa
  %70 = call i32 @llvm.smin.i32(i32 %69, i32 %14)
  store i32 %70, ptr %10, align 4, !tbaa !10
  %.not = icmp sgt i32 %68, %70
  br i1 %.not, label %._crit_edge45, label %.preheader

._crit_edge45:                                    ; preds = %._crit_edge43, %16
  call void @__kmpc_for_static_fini(ptr nonnull @1, i32 %17)
  call void @llvm.lifetime.end.p0(i64 4, ptr nonnull %12) #22
  call void @llvm.lifetime.end.p0(i64 4, ptr nonnull %11) #22
  call void @llvm.lifetime.end.p0(i64 4, ptr nonnull %10) #22
  call void @llvm.lifetime.end.p0(i64 4, ptr nonnull %9) #22
  br label %71

71:                                               ; preds = %._crit_edge45, %8
  ret void
}